; ModuleID = '55/1494.cpp'
source_filename = "55/1494.cpp"
target datalayout = "e-m:e-p270:32:32-p271:32:32-p272:64:64-i64:64-f80:128-n8:16:32:64-S128"
target triple = "x86_64-pc-linux-gnu"

%"class.std::ios_base::Init" = type { i8 }
%"class.std::basic_istream" = type { i32 (...)**, i64, %"class.std::basic_ios" }
%"class.std::basic_ios" = type { %"class.std::ios_base", %"class.std::basic_ostream"*, i8, i8, %"class.std::basic_streambuf"*, %"class.std::ctype"*, %"class.std::num_put"*, %"class.std::num_get"* }
%"class.std::ios_base" = type { i32 (...)**, i64, i64, i32, i32, i32, %"struct.std::ios_base::_Callback_list"*, %"struct.std::ios_base::_Words", [8 x %"struct.std::ios_base::_Words"], i32, %"struct.std::ios_base::_Words"*, %"class.std::locale" }
%"struct.std::ios_base::_Callback_list" = type { %"struct.std::ios_base::_Callback_list"*, void (i32, %"class.std::ios_base"*, i32)*, i32, i32 }
%"struct.std::ios_base::_Words" = type { i8*, i64 }
%"class.std::locale" = type { %"class.std::locale::_Impl"* }
%"class.std::locale::_Impl" = type { i32, %"class.std::locale::facet"**, i64, %"class.std::locale::facet"**, i8** }
%"class.std::locale::facet" = type <{ i32 (...)**, i32, [4 x i8] }>
%"class.std::basic_ostream" = type { i32 (...)**, %"class.std::basic_ios" }
%"class.std::basic_streambuf" = type { i32 (...)**, i8*, i8*, i8*, i8*, i8*, i8*, %"class.std::locale" }
%"class.std::ctype" = type <{ %"class.std::locale::facet.base", [4 x i8], %struct.__locale_struct*, i8, [7 x i8], i32*, i32*, i16*, i8, [256 x i8], [256 x i8], i8, [6 x i8] }>
%"class.std::locale::facet.base" = type <{ i32 (...)**, i32 }>
%struct.__locale_struct = type { [13 x %struct.__locale_data*], i16*, i32*, i32*, [13 x i8*] }
%struct.__locale_data = type opaque
%"class.std::num_put" = type { %"class.std::locale::facet.base", [4 x i8] }
%"class.std::num_get" = type { %"class.std::locale::facet.base", [4 x i8] }

@_ZStL8__ioinit = internal global %"class.std::ios_base::Init" zeroinitializer, align 1
@__dso_handle = external hidden global i8
@_ZSt3cin = external dso_local global %"class.std::basic_istream", align 8
@_ZSt4cout = external dso_local global %"class.std::basic_ostream", align 8
@.str = private unnamed_addr constant [2 x i8] c"0\00", align 1
@llvm.global_ctors = appending global [1 x { i32, void ()*, i8* }] [{ i32, void ()*, i8* } { i32 65535, void ()* @_GLOBAL__sub_I_1494.cpp, i8* null }]

; Function Attrs: noinline uwtable
define internal void @__cxx_global_var_init() #0 section ".text.startup" {
  call void @_ZNSt8ios_base4InitC1Ev(%"class.std::ios_base::Init"* @_ZStL8__ioinit)
  %1 = call i32 @__cxa_atexit(void (i8*)* bitcast (void (%"class.std::ios_base::Init"*)* @_ZNSt8ios_base4InitD1Ev to void (i8*)*), i8* getelementptr inbounds (%"class.std::ios_base::Init", %"class.std::ios_base::Init"* @_ZStL8__ioinit, i32 0, i32 0), i8* @__dso_handle) #3
  ret void
}

declare dso_local void @_ZNSt8ios_base4InitC1Ev(%"class.std::ios_base::Init"*) unnamed_addr #1

; Function Attrs: nounwind
declare dso_local void @_ZNSt8ios_base4InitD1Ev(%"class.std::ios_base::Init"*) unnamed_addr #2

; Function Attrs: nounwind
declare dso_local i32 @__cxa_atexit(void (i8*)*, i8*, i8*) #3

; Function Attrs: noinline norecurse uwtable
define dso_local i32 @main() #4 {
  %1 = alloca i32, align 4
  %2 = alloca [100 x i8], align 16
  %3 = alloca [100 x i8], align 16
  %4 = alloca i32, align 4
  %5 = alloca i32, align 4
  %6 = alloca i32, align 4
  %7 = alloca i64, align 8
  store i32 0, i32* %1, align 4
  %8 = bitcast [100 x i8]* %3 to i8*
  call void @llvm.memset.p0i8.i64(i8* align 16 %8, i8 0, i64 100, i1 false)
  %9 = bitcast i8* %8 to <{ i8, [99 x i8] }>*
  %10 = getelementptr inbounds <{ i8, [99 x i8] }>, <{ i8, [99 x i8] }>* %9, i32 0, i32 0
  store i8 48, i8* %10, align 16
  store i64 0, i64* %7, align 8
  %11 = call dereferenceable(280) %"class.std::basic_istream"* @_ZNSirsERi(%"class.std::basic_istream"* @_ZSt3cin, i32* dereferenceable(4) %4)
  %12 = call i32 @getchar()
  %13 = getelementptr inbounds [100 x i8], [100 x i8]* %2, i64 0, i64 0
  %14 = call dereferenceable(280) %"class.std::basic_istream"* @_ZNSi7getlineEPclc(%"class.std::basic_istream"* @_ZSt3cin, i8* %13, i64 100, i8 signext 32)
  %15 = call dereferenceable(280) %"class.std::basic_istream"* @_ZNSirsERi(%"class.std::basic_istream"* @_ZSt3cin, i32* dereferenceable(4) %5)
  store i32 0, i32* %6, align 4
  br label %16

16:                                               ; preds = %75, %0
  %17 = load i32, i32* %6, align 4
  %18 = sext i32 %17 to i64
  %19 = getelementptr inbounds [100 x i8], [100 x i8]* %2, i64 0, i64 %18
  %20 = load i8, i8* %19, align 1
  %21 = sext i8 %20 to i32
  %22 = icmp ne i32 %21, 0
  br i1 %22, label %23, label %78

23:                                               ; preds = %16
  %24 = load i32, i32* %4, align 4
  %25 = sext i32 %24 to i64
  %26 = load i64, i64* %7, align 8
  %27 = mul nsw i64 %26, %25
  store i64 %27, i64* %7, align 8
  %28 = load i32, i32* %6, align 4
  %29 = sext i32 %28 to i64
  %30 = getelementptr inbounds [100 x i8], [100 x i8]* %2, i64 0, i64 %29
  %31 = load i8, i8* %30, align 1
  %32 = sext i8 %31 to i32
  %33 = icmp slt i32 %32, 65
  br i1 %33, label %34, label %44

34:                                               ; preds = %23
  %35 = load i32, i32* %6, align 4
  %36 = sext i32 %35 to i64
  %37 = getelementptr inbounds [100 x i8], [100 x i8]* %2, i64 0, i64 %36
  %38 = load i8, i8* %37, align 1
  %39 = sext i8 %38 to i32
  %40 = sub nsw i32 %39, 48
  %41 = sext i32 %40 to i64
  %42 = load i64, i64* %7, align 8
  %43 = add nsw i64 %42, %41
  store i64 %43, i64* %7, align 8
  br label %74

44:                                               ; preds = %23
  %45 = load i32, i32* %6, align 4
  %46 = sext i32 %45 to i64
  %47 = getelementptr inbounds [100 x i8], [100 x i8]* %2, i64 0, i64 %46
  %48 = load i8, i8* %47, align 1
  %49 = sext i8 %48 to i32
  %50 = icmp slt i32 %49, 97
  br i1 %50, label %51, label %62

51:                                               ; preds = %44
  %52 = load i32, i32* %6, align 4
  %53 = sext i32 %52 to i64
  %54 = getelementptr inbounds [100 x i8], [100 x i8]* %2, i64 0, i64 %53
  %55 = load i8, i8* %54, align 1
  %56 = sext i8 %55 to i32
  %57 = sub nsw i32 %56, 65
  %58 = add nsw i32 %57, 10
  %59 = sext i32 %58 to i64
  %60 = load i64, i64* %7, align 8
  %61 = add nsw i64 %60, %59
  store i64 %61, i64* %7, align 8
  br label %73

62:                                               ; preds = %44
  %63 = load i32, i32* %6, align 4
  %64 = sext i32 %63 to i64
  %65 = getelementptr inbounds [100 x i8], [100 x i8]* %2, i64 0, i64 %64
  %66 = load i8, i8* %65, align 1
  %67 = sext i8 %66 to i32
  %68 = sub nsw i32 %67, 97
  %69 = add nsw i32 %68, 10
  %70 = sext i32 %69 to i64
  %71 = load i64, i64* %7, align 8
  %72 = add nsw i64 %71, %70
  store i64 %72, i64* %7, align 8
  br label %73

73:                                               ; preds = %62, %51
  br label %74

74:                                               ; preds = %73, %34
  br label %75

75:                                               ; preds = %74
  %76 = load i32, i32* %6, align 4
  %77 = add nsw i32 %76, 1
  store i32 %77, i32* %6, align 4
  br label %16

78:                                               ; preds = %16
  store i32 0, i32* %6, align 4
  br label %79

79:                                               ; preds = %114, %78
  %80 = load i64, i64* %7, align 8
  %81 = icmp ne i64 %80, 0
  br i1 %81, label %82, label %117

82:                                               ; preds = %79
  %83 = load i64, i64* %7, align 8
  %84 = load i32, i32* %5, align 4
  %85 = sext i32 %84 to i64
  %86 = srem i64 %83, %85
  %87 = icmp sgt i64 %86, 9
  br i1 %87, label %88, label %99

88:                                               ; preds = %82
  %89 = load i64, i64* %7, align 8
  %90 = load i32, i32* %5, align 4
  %91 = sext i32 %90 to i64
  %92 = srem i64 %89, %91
  %93 = sub nsw i64 %92, 10
  %94 = add nsw i64 %93, 65
  %95 = trunc i64 %94 to i8
  %96 = load i32, i32* %6, align 4
  %97 = sext i32 %96 to i64
  %98 = getelementptr inbounds [100 x i8], [100 x i8]* %3, i64 0, i64 %97
  store i8 %95, i8* %98, align 1
  br label %109

99:                                               ; preds = %82
  %100 = load i64, i64* %7, align 8
  %101 = load i32, i32* %5, align 4
  %102 = sext i32 %101 to i64
  %103 = srem i64 %100, %102
  %104 = add nsw i64 %103, 48
  %105 = trunc i64 %104 to i8
  %106 = load i32, i32* %6, align 4
  %107 = sext i32 %106 to i64
  %108 = getelementptr inbounds [100 x i8], [100 x i8]* %3, i64 0, i64 %107
  store i8 %105, i8* %108, align 1
  br label %109

109:                                              ; preds = %99, %88
  %110 = load i32, i32* %5, align 4
  %111 = sext i32 %110 to i64
  %112 = load i64, i64* %7, align 8
  %113 = sdiv i64 %112, %111
  store i64 %113, i64* %7, align 8
  br label %114

114:                                              ; preds = %109
  %115 = load i32, i32* %6, align 4
  %116 = add nsw i32 %115, 1
  store i32 %116, i32* %6, align 4
  br label %79

117:                                              ; preds = %79
  %118 = load i32, i32* %6, align 4
  %119 = icmp eq i32 %118, 0
  br i1 %119, label %120, label %122

120:                                              ; preds = %117
  %121 = call dereferenceable(272) %"class.std::basic_ostream"* @_ZStlsISt11char_traitsIcEERSt13basic_ostreamIcT_ES5_PKc(%"class.std::basic_ostream"* dereferenceable(272) @_ZSt4cout, i8* getelementptr inbounds ([2 x i8], [2 x i8]* @.str, i64 0, i64 0))
  br label %122

122:                                              ; preds = %120, %117
  %123 = load i32, i32* %6, align 4
  %124 = add nsw i32 %123, -1
  store i32 %124, i32* %6, align 4
  br label %125

125:                                              ; preds = %134, %122
  %126 = load i32, i32* %6, align 4
  %127 = icmp sge i32 %126, 0
  br i1 %127, label %128, label %137

128:                                              ; preds = %125
  %129 = load i32, i32* %6, align 4
  %130 = sext i32 %129 to i64
  %131 = getelementptr inbounds [100 x i8], [100 x i8]* %3, i64 0, i64 %130
  %132 = load i8, i8* %131, align 1
  %133 = call dereferenceable(272) %"class.std::basic_ostream"* @_ZStlsISt11char_traitsIcEERSt13basic_ostreamIcT_ES5_c(%"class.std::basic_ostream"* dereferenceable(272) @_ZSt4cout, i8 signext %132)
  br label %134

134:                                              ; preds = %128
  %135 = load i32, i32* %6, align 4
  %136 = add nsw i32 %135, -1
  store i32 %136, i32* %6, align 4
  br label %125

137:                                              ; preds = %125
  %138 = call dereferenceable(272) %"class.std::basic_ostream"* @_ZNSolsEPFRSoS_E(%"class.std::basic_ostream"* @_ZSt4cout, %"class.std::basic_ostream"* (%"class.std::basic_ostream"*)* @_ZSt4endlIcSt11char_traitsIcEERSt13basic_ostreamIT_T0_ES6_)
  ret i32 0
}

; Function Attrs: argmemonly nounwind willreturn
declare void @llvm.memset.p0i8.i64(i8* nocapture writeonly, i8, i64, i1 immarg) #5

declare dso_local dereferenceable(280) %"class.std::basic_istream"* @_ZNSirsERi(%"class.std::basic_istream"*, i32* dereferenceable(4)) #1

declare dso_local i32 @getchar() #1

declare dso_local dereferenceable(280) %"class.std::basic_istream"* @_ZNSi7getlineEPclc(%"class.std::basic_istream"*, i8*, i64, i8 signext) #1

declare dso_local dereferenceable(272) %"class.std::basic_ostream"* @_ZStlsISt11char_traitsIcEERSt13basic_ostreamIcT_ES5_PKc(%"class.std::basic_ostream"* dereferenceable(272), i8*) #1

declare dso_local dereferenceable(272) %"class.std::basic_ostream"* @_ZStlsISt11char_traitsIcEERSt13basic_ostreamIcT_ES5_c(%"class.std::basic_ostream"* dereferenceable(272), i8 signext) #1

declare dso_local dereferenceable(272) %"class.std::basic_ostream"* @_ZNSolsEPFRSoS_E(%"class.std::basic_ostream"*, %"class.std::basic_ostream"* (%"class.std::basic_ostream"*)*) #1

declare dso_local dereferenceable(272) %"class.std::basic_ostream"* @_ZSt4endlIcSt11char_traitsIcEERSt13basic_ostreamIT_T0_ES6_(%"class.std::basic_ostream"* dereferenceable(272)) #1

; Function Attrs: noinline uwtable
define internal void @_GLOBAL__sub_I_1494.cpp() #0 section ".text.startup" {
  call void @__cxx_global_var_init()
  ret void
}


!llvm.module.flags = !{!0}
!llvm.ident = !{!1}

!0 = !{i32 1, !"wchar_size", i32 4}
!1 = !{!"clang version 10.0.0-4ubuntu1 "}
